target datalayout = "e-m:e-p270:32:32-p271:32:32-p272:64:64-i64:64-i128:128-f80:128-n8:16:32:64-S128"
target triple = "x86_64-pc-linux-gnu"

@.str.112 = private unnamed_addr constant [9 x i8] c"activate\00", align 1

; Function Attrs: nounwind uwtable
define internal void @_camera_build_property_menu(ptr noundef %0, ptr noundef %1, ptr noundef %2, ptr noundef %3) #0 {
  %5 = alloca ptr, align 8
  %6 = alloca ptr, align 8
  %7 = alloca ptr, align 8
  %8 = alloca ptr, align 8
  %9 = alloca i32, align 4
  %10 = alloca ptr, align 8
  %11 = alloca i32, align 4
  %12 = alloca ptr, align 8
  %13 = alloca i32, align 4
  %14 = alloca ptr, align 8
  %15 = alloca ptr, align 8
  %16 = alloca ptr, align 8
  store ptr %0, ptr %5, align 8, !tbaa !155
  store ptr %1, ptr %6, align 8, !tbaa !153
  store ptr %2, ptr %7, align 8, !tbaa !72
  store ptr %3, ptr %8, align 8, !tbaa !72
  call void @llvm.lifetime.start.p0(i64 4, ptr %9) #10
  store i32 0, ptr %9, align 4, !tbaa !64
  call void @llvm.lifetime.start.p0(i64 8, ptr %10) #10
  call void @llvm.lifetime.start.p0(i64 4, ptr %11) #10
  %17 = load ptr, ptr %5, align 8, !tbaa !155
  %18 = call i32 @gp_widget_count_children(ptr noundef %17)
  store i32 %18, ptr %9, align 4, !tbaa !64
  %19 = icmp sgt i32 %18, 0
  br i1 %19, label %20, label %100

20:                                               ; preds = %4
  call void @llvm.lifetime.start.p0(i64 8, ptr %12) #10
  store ptr null, ptr %12, align 8, !tbaa !155
  call void @llvm.lifetime.start.p0(i64 4, ptr %13) #10
  store i32 0, ptr %13, align 4, !tbaa !64
  br label %21

21:                                               ; preds = %96, %20
  %22 = load i32, ptr %13, align 4, !tbaa !64
  %23 = load i32, ptr %9, align 4, !tbaa !64
  %24 = icmp slt i32 %22, %23
  br i1 %24, label %26, label %25

25:                                               ; preds = %21
  call void @llvm.lifetime.end.p0(i64 4, ptr %13) #10
  br label %99

26:                                               ; preds = %21
  %27 = load ptr, ptr %5, align 8, !tbaa !155
  %28 = load i32, ptr %13, align 4, !tbaa !64
  %29 = call i32 @gp_widget_get_child(ptr noundef %27, i32 noundef %28, ptr noundef %12)
  %30 = load ptr, ptr %12, align 8, !tbaa !155
  %31 = call i32 @gp_widget_get_name(ptr noundef %30, ptr noundef %10)
  %32 = load ptr, ptr %12, align 8, !tbaa !155
  %33 = call i32 @gp_widget_count_children(ptr noundef %32)
  %34 = icmp sgt i32 %33, 0
  br i1 %34, label %35, label %65

35:                                               ; preds = %26
  call void @llvm.lifetime.start.p0(i64 8, ptr %14) #10
  %36 = load ptr, ptr %10, align 8, !tbaa !63
  %37 = call ptr @gtk_menu_item_new_with_label(ptr noundef %36)
  %38 = call i64 @gtk_menu_item_get_type() #13
  %39 = call ptr @g_type_check_instance_cast(ptr noundef %37, i64 noundef %38)
  store ptr %39, ptr %14, align 8, !tbaa !156
  %40 = load ptr, ptr %14, align 8, !tbaa !156
  %41 = call ptr @gtk_menu_new()
  call void @gtk_menu_item_set_submenu(ptr noundef %40, ptr noundef %41)
  %42 = load ptr, ptr %12, align 8, !tbaa !155
  %43 = load ptr, ptr %14, align 8, !tbaa !156
  %44 = call ptr @gtk_menu_item_get_submenu(ptr noundef %43)
  %45 = call i64 @gtk_menu_get_type() #13
  %46 = call ptr @g_type_check_instance_cast(ptr noundef %44, i64 noundef %45)
  %47 = load ptr, ptr %7, align 8, !tbaa !72
  %48 = load ptr, ptr %8, align 8, !tbaa !72
  call void @_camera_build_property_menu(ptr noundef %42, ptr noundef %46, ptr noundef %47, ptr noundef %48)
  call void @llvm.lifetime.start.p0(i64 8, ptr %15) #10
  %49 = load ptr, ptr %14, align 8, !tbaa !156
  %50 = call ptr @gtk_menu_item_get_submenu(ptr noundef %49)
  %51 = call i64 @gtk_container_get_type() #13
  %52 = call ptr @g_type_check_instance_cast(ptr noundef %50, i64 noundef %51)
  %53 = call ptr @gtk_container_get_children(ptr noundef %52)
  store ptr %53, ptr %15, align 8, !tbaa !85
  %54 = load ptr, ptr %15, align 8, !tbaa !85
  %55 = icmp ne ptr %54, null
  br i1 %55, label %56, label %64

56:                                               ; preds = %35
  %57 = load ptr, ptr %6, align 8, !tbaa !153
  %58 = call i64 @gtk_menu_shell_get_type() #13
  %59 = call ptr @g_type_check_instance_cast(ptr noundef %57, i64 noundef %58)
  %60 = load ptr, ptr %14, align 8, !tbaa !156
  %61 = call i64 @gtk_widget_get_type() #13
  %62 = call ptr @g_type_check_instance_cast(ptr noundef %60, i64 noundef %61)
  call void @gtk_menu_shell_append(ptr noundef %59, ptr noundef %62)
  %63 = load ptr, ptr %15, align 8, !tbaa !85
  call void @g_list_free(ptr noundef %63)
  br label %64

64:                                               ; preds = %56, %35
  call void @llvm.lifetime.end.p0(i64 8, ptr %15) #10
  call void @llvm.lifetime.end.p0(i64 8, ptr %14) #10
  br label %95

65:                                               ; preds = %26
  %66 = load ptr, ptr %12, align 8, !tbaa !155
  %67 = call i32 @gp_widget_get_type(ptr noundef %66, ptr noundef %11)
  %68 = load i32, ptr %11, align 4, !tbaa !64
  %69 = icmp eq i32 %68, 6
  br i1 %69, label %76, label %70

70:                                               ; preds = %65
  %71 = load i32, ptr %11, align 4, !tbaa !64
  %72 = icmp eq i32 %71, 2
  br i1 %72, label %76, label %73

73:                                               ; preds = %70
  %74 = load i32, ptr %11, align 4, !tbaa !64
  %75 = icmp eq i32 %74, 5
  br i1 %75, label %76, label %94

76:                                               ; preds = %73, %70, %65
  %77 = load ptr, ptr %12, align 8, !tbaa !155
  %78 = call i32 @gp_widget_get_name(ptr noundef %77, ptr noundef %10)
  call void @llvm.lifetime.start.p0(i64 8, ptr %16) #10
  %79 = load ptr, ptr %10, align 8, !tbaa !63
  %80 = call ptr @gtk_menu_item_new_with_label(ptr noundef %79)
  %81 = call i64 @gtk_menu_item_get_type() #13
  %82 = call ptr @g_type_check_instance_cast(ptr noundef %80, i64 noundef %81)
  store ptr %82, ptr %16, align 8, !tbaa !156
  %83 = load ptr, ptr %16, align 8, !tbaa !156
  %84 = call ptr @g_type_check_instance_cast(ptr noundef %83, i64 noundef 80)
  %85 = load ptr, ptr %7, align 8, !tbaa !72
  %86 = load ptr, ptr %8, align 8, !tbaa !72
  %87 = call i64 @g_signal_connect_data(ptr noundef %84, ptr noundef @.str.112, ptr noundef %85, ptr noundef %86, ptr noundef null, i32 noundef 0)
  %88 = load ptr, ptr %6, align 8, !tbaa !153
  %89 = call i64 @gtk_menu_shell_get_type() #13
  %90 = call ptr @g_type_check_instance_cast(ptr noundef %88, i64 noundef %89)
  %91 = load ptr, ptr %16, align 8, !tbaa !156
  %92 = call i64 @gtk_widget_get_type() #13
  %93 = call ptr @g_type_check_instance_cast(ptr noundef %91, i64 noundef %92)
  call void @gtk_menu_shell_append(ptr noundef %90, ptr noundef %93)
  call void @llvm.lifetime.end.p0(i64 8, ptr %16) #10
  br label %94

94:                                               ; preds = %76, %73
  br label %95

95:                                               ; preds = %94, %64
  br label %96

96:                                               ; preds = %95
  %97 = load i32, ptr %13, align 4, !tbaa !64
  %98 = add nsw i32 %97, 1
  store i32 %98, ptr %13, align 4, !tbaa !64
  br label %21

99:                                               ; preds = %25
  call void @llvm.lifetime.end.p0(i64 8, ptr %12) #10
  br label %100

100:                                              ; preds = %99, %4
  call void @llvm.lifetime.end.p0(i64 4, ptr %11) #10
  call void @llvm.lifetime.end.p0(i64 8, ptr %10) #10
  call void @llvm.lifetime.end.p0(i64 4, ptr %9) #10
  ret void
}