; Function Attrs: nounwind uwtable
define internal fastcc void @_camera_build_property_menu(ptr noundef %0, ptr noundef %1, ptr noundef %2, ptr noundef %3) unnamed_addr #0 {
  %5 = alloca ptr, align 8
  %6 = alloca i32, align 4
  %7 = alloca ptr, align 8
  call void @llvm.lifetime.start.p0(i64 8, ptr nonnull %5) #15
  call void @llvm.lifetime.start.p0(i64 4, ptr nonnull %6) #15
  %8 = tail call i32 @gp_widget_count_children(ptr noundef %0) #15
  %9 = icmp sgt i32 %8, 0
  br i1 %9, label %10, label %57

10:                                               ; preds = %4
  call void @llvm.lifetime.start.p0(i64 8, ptr nonnull %7) #15
  store ptr null, ptr %7, align 8, !tbaa !146
  br label %12

11:                                               ; preds = %55
  call void @llvm.lifetime.end.p0(i64 8, ptr nonnull %7) #15
  br label %57

12:                                               ; preds = %10, %55
  %.024 = phi i32 [ 0, %10 ], [ %56, %55 ]
  %13 = call i32 @gp_widget_get_child(ptr noundef %0, i32 noundef %.024, ptr noundef nonnull %7) #15
  %14 = load ptr, ptr %7, align 8, !tbaa !146
  %15 = call i32 @gp_widget_get_name(ptr noundef %14, ptr noundef nonnull %5) #15
  %16 = load ptr, ptr %7, align 8, !tbaa !146
  %17 = call i32 @gp_widget_count_children(ptr noundef %16) #15
  %18 = icmp sgt i32 %17, 0
  br i1 %18, label %19, label %38

19:                                               ; preds = %12
  %20 = load ptr, ptr %5, align 8, !tbaa !103
  %21 = call ptr @gtk_menu_item_new_with_label(ptr noundef %20) #15
  %22 = tail call i64 @gtk_menu_item_get_type() #18
  %23 = call ptr @g_type_check_instance_cast(ptr noundef %21, i64 noundef %22) #15
  %24 = call ptr @gtk_menu_new() #15
  call void @gtk_menu_item_set_submenu(ptr noundef %23, ptr noundef %24) #15
  %25 = load ptr, ptr %7, align 8, !tbaa !146
  %26 = call ptr @gtk_menu_item_get_submenu(ptr noundef %23) #15
  %27 = tail call i64 @gtk_menu_get_type() #18
  %28 = call ptr @g_type_check_instance_cast(ptr noundef %26, i64 noundef %27) #15
  call fastcc void @_camera_build_property_menu(ptr noundef %25, ptr noundef %28, ptr noundef %2, ptr noundef %3)
  %29 = call ptr @gtk_menu_item_get_submenu(ptr noundef %23) #15
  %30 = tail call i64 @gtk_container_get_type() #18
  %31 = call ptr @g_type_check_instance_cast(ptr noundef %29, i64 noundef %30) #15
  %32 = call ptr @gtk_container_get_children(ptr noundef %31) #15
  %.not = icmp eq ptr %32, null
  br i1 %.not, label %55, label %33

33:                                               ; preds = %19
  %34 = tail call i64 @gtk_menu_shell_get_type() #18
  %35 = call ptr @g_type_check_instance_cast(ptr noundef %1, i64 noundef %34) #15
  %36 = tail call i64 @gtk_widget_get_type() #18
  %37 = call ptr @g_type_check_instance_cast(ptr noundef %23, i64 noundef %36) #15
  call void @gtk_menu_shell_append(ptr noundef %35, ptr noundef %37) #15
  call void @g_list_free(ptr noundef nonnull %32) #15
  br label %55

38:                                               ; preds = %12
  %39 = load ptr, ptr %7, align 8, !tbaa !146
  %40 = call i32 @gp_widget_get_type(ptr noundef %39, ptr noundef nonnull %6) #15
  %41 = load i32, ptr %6, align 4, !tbaa !100
  switch i32 %41, label %55 [
    i32 6, label %42
    i32 5, label %42
    i32 2, label %42
  ]

42:                                               ; preds = %38, %38, %38
  %43 = load ptr, ptr %7, align 8, !tbaa !146
  %44 = call i32 @gp_widget_get_name(ptr noundef %43, ptr noundef nonnull %5) #15
  %45 = load ptr, ptr %5, align 8, !tbaa !103
  %46 = call ptr @gtk_menu_item_new_with_label(ptr noundef %45) #15
  %47 = tail call i64 @gtk_menu_item_get_type() #18
  %48 = call ptr @g_type_check_instance_cast(ptr noundef %46, i64 noundef %47) #15
  %49 = call ptr @g_type_check_instance_cast(ptr noundef %48, i64 noundef 80) #15
  %50 = call i64 @g_signal_connect_data(ptr noundef %49, ptr noundef nonnull @.str.112, ptr noundef %2, ptr noundef %3, ptr noundef null, i32 noundef 0) #15
  %51 = tail call i64 @gtk_menu_shell_get_type() #18
  %52 = call ptr @g_type_check_instance_cast(ptr noundef %1, i64 noundef %51) #15
  %53 = tail call i64 @gtk_widget_get_type() #18
  %54 = call ptr @g_type_check_instance_cast(ptr noundef %48, i64 noundef %53) #15
  call void @gtk_menu_shell_append(ptr noundef %52, ptr noundef %54) #15
  br label %55

55:                                               ; preds = %38, %19, %33, %42
  %56 = add nuw nsw i32 %.024, 1
  %exitcond.not = icmp eq i32 %56, %8
  br i1 %exitcond.not, label %11, label %12

57:                                               ; preds = %11, %4
  call void @llvm.lifetime.end.p0(i64 4, ptr nonnull %6) #15
  call void @llvm.lifetime.end.p0(i64 8, ptr nonnull %5) #15
  ret void
}